(dp1
VMB22_law
p2
(dp3
I0
I472
sI1
I372
sI2
I254
sI3
I264
sI4
I331
sI5
I378
sI6
I390
sI7
I415
sI8
I361
sI9
I262
ssVMB37_recoveri
p4
(dp5
I0
I53
sI1
I107
sI2
I84
sI3
I78
sI4
I58
sI5
I69
sI6
I93
sI7
I91
sI8
I87
sI9
I108
sI10
I66
sI11
I51
ssVMB8_phone
p6
(dp7
I0
I261
sI1
I269
sI2
I226
sI3
I210
sI4
I360
sI5
I308
sI6
I237
sI7
I280
sI8
I290
sI9
I356
sI10
I335
sI11
I294
sI12
I341
sI13
I337
sI14
I299
sI15
I201
ssVMB48_evacu
p8
(dp9
I0
I56
sI1
I10
sI2
I15
sI3
I11
sI4
I6
sI5
I10
sI6
I11
sI7
I6
sI8
I2
ssVMB13_sister
p10
(dp11
I0
I701
sI1
I396
ssVMB22_healthcar
p12
(dp13
I0
I77
sI1
I78
sI2
I34
sI3
I43
sI4
I60
sI5
I34
sI6
I84
sI7
I59
sI8
I49
sI9
I30
ssVMB34_maddow
p14
(dp15
I0
I10
sI1
I8
sI2
I11
sI3
I9
sI4
I2
sI5
I3
sI6
I7
sI7
I10
sI8
I6
sI9
I10
sI10
I7
sI11
I1
sI12
I5
ssVMB37_gifford
p16
(dp17
I0
I10
sI2
I1
sI3
I9
sI4
I6
sI5
I4
sI6
I9
sI7
I24
sI8
I75
sI9
I25
sI10
I29
sI11
I25
ssVMB18_date
p18
(dp19
I0
I973
sI1
I960
sI2
I782
sI3
I329
ssVMB39_egyptian
p20
(dp21
I0
I384
sI1
I136
sI2
I138
sI3
I50
sI4
I18
sI5
I8
ssVMB7_murder
p22
(dp23
I0
I173
sI1
I189
sI2
I126
sI3
I148
sI4
I156
sI5
I151
sI6
I161
sI7
I160
sI8
I132
sI9
I120
sI10
I127
sI11
I165
sI12
I191
sI13
I175
sI14
I157
sI15
I155
sI16
I121
ssVMB44_spokesman
p24
(dp25
I0
I17
sI1
I12
sI2
I5
sI3
I8
sI4
I4
ssVMB8_hack
p26
(dp27
I0
I206
sI1
I176
sI2
I140
sI3
I185
sI4
I131
sI5
I136
sI6
I174
sI7
I179
sI8
I124
sI9
I166
sI10
I204
sI11
I273
sI12
I235
sI13
I171
sI14
I162
sI15
I136
ssVMB8_british
p28
(dp29
I0
I131
sI1
I114
sI2
I128
sI3
I152
sI4
I139
sI5
I163
sI6
I164
sI7
I190
sI8
I127
sI9
I101
sI10
I152
sI11
I133
sI12
I150
sI13
I162
sI14
I139
sI15
I96
ssVMB24_super
p30
(dp31
I0
I284
sI1
I2355
sI2
I765
sI3
I370
sI4
I227
sI5
I251
sI6
I208
sI7
I173
sI8
I186
sI9
I94
sI10
I151
sI11
I137
sI12
I100
sI13
I173
sI14
I170
sI15
I364
sI16
I85
ssVMB2_2022
p32
(dp33
I0
I10
sI1
I10
sI2
I1
sI3
I1
sI4
I2
sI5
I2
sI6
I4
sI7
I6
sI8
I4
sI9
I4
sI10
I5
sI11
I4
sI12
I9
sI13
I5
sI14
I3
sI15
I4
sI16
I2
ssVMB3_aristid
p34
(dp35
I0
I22
sI1
I6
sI2
I2
sI3
I2
sI5
I3
sI6
I7
sI7
I25
sI8
I2
sI9
I4
sI10
I1
sI11
I2
sI12
I1
sI13
I2
sI14
I5
sI15
I5
sI16
I7
ssVMB12_peac
p36
(dp37
I0
I385
sI1
I407
sI2
I354
sI3
I382
sI4
I321
sI5
I326
sI6
I369
sI7
I361
sI8
I248
ssVMB11_crash
p38
(dp39
I0
I219
sI1
I188
sI2
I225
sI3
I216
sI4
I207
sI5
I190
sI6
I181
sI7
I194
sI8
I189
sI9
I196
sI10
I195
sI11
I186
sI12
I184
sI13
I175
sI14
I51
ssVMB22_unconstitut
p40
(dp41
I0
I55
sI1
I67
sI2
I1
sI3
I5
sI4
I5
sI5
I6
sI6
I1
sI8
I3
sI9
I3
ssVMB38_protest
p42
(dp43
I0
I467
sI1
I462
sI2
I553
sI3
I854
sI4
I431
sI5
I307
sI6
I319
sI7
I142
sI8
I95
sI9
I45
ssVMB10_museum
p44
(dp45
I0
I139
sI1
I103
sI2
I101
sI3
I99
sI4
I73
sI5
I87
sI6
I68
ssVMB30_olbermann
p46
(dp47
I0
I112
sI1
I7
sI2
I5
sI3
I4
sI4
I2
sI5
I3
sI6
I2
sI7
I2
sI8
I2
sI9
I4
sI10
I9
sI11
I11
sI12
I10
sI13
I29
sI14
I65
sI15
I79
sI16
I78
ssVMB10_protest
p48
(dp49
I0
I711
sI1
I747
sI2
I295
sI3
I317
sI4
I223
sI5
I107
sI6
I76
ssVMB4_mexico
p50
(dp51
I0
I277
sI1
I241
sI2
I152
sI3
I179
sI4
I184
sI5
I238
sI6
I243
sI7
I213
sI8
I194
sI9
I164
sI10
I111
ssVMB20_bell
p52
(dp53
I0
I236
sI1
I280
sI2
I264
sI3
I263
sI4
I281
sI5
I288
sI6
I257
sI7
I256
sI8
I348
sI9
I318
sI10
I320
sI11
I444
sI12
I274
sI13
I210
sI14
I70
ssVMB45_social
p54
(dp55
I0
I453
sI1
I315
sI2
I287
sI3
I441
sI4
I504
sI5
I521
sI6
I561
sI7
I534
sI8
I324
sI9
I113
ssVMB7_pakistan
p56
(dp57
I0
I64
sI1
I50
sI2
I41
sI3
I69
sI4
I78
sI5
I100
sI6
I57
sI7
I87
sI8
I74
sI9
I42
sI10
I95
sI11
I64
sI12
I48
sI13
I55
sI14
I63
sI15
I51
sI16
I64
ssVMB32_union
p58
(dp59
I0
I141
sI1
I143
sI2
I141
sI3
I158
sI4
I123
sI5
I102
sI6
I170
sI7
I254
sI8
I1195
sI9
I673
sI10
I223
sI11
I117
sI12
I15
ssVMB46_veneta
p60
(dp61
I0
I2
sI1
I2
sI3
I3
sI4
I3
sI5
I3
sI6
I3
sI7
I1
sI8
I1
sI10
I1
sI11
I1
sI12
I4
sI13
I1
sI14
I1
sI16
I2
ssVMB25_tsa
p62
(dp63
I0
I26
sI1
I35
sI2
I19
sI3
I9
sI4
I11
sI5
I18
sI6
I13
sI7
I11
sI8
I27
sI9
I22
sI10
I14
sI11
I4
ssVMB32_state
p64
(dp65
I0
I490
sI1
I451
sI2
I468
sI3
I434
sI4
I328
sI5
I370
sI6
I506
sI7
I548
sI8
I1492
sI9
I1026
sI10
I539
sI11
I327
sI12
I37
ssVMB45_media
p66
(dp67
I0
I600
sI1
I453
sI2
I401
sI3
I555
sI4
I636
sI5
I612
sI6
I636
sI7
I654
sI8
I363
sI9
I135
ssVMB21_emanuel
p68
(dp69
I0
I40
sI1
I52
sI2
I29
sI3
I89
sI4
I135
sI5
I20
sI6
I2
ssVMB18_kate
p70
(dp71
I0
I125
sI1
I110
sI2
I89
sI3
I19
ssVMB27_reduc
p72
(dp73
I0
I116
sI1
I129
sI2
I99
sI3
I91
sI4
I68
sI5
I72
sI6
I104
sI7
I104
sI8
I115
sI9
I113
sI10
I96
sI11
I73
sI12
I8
ssVMB5_nist
p74
(dp75
I0
I9
sI1
I9
sI2
I2
sI3
I3
sI4
I1
sI5
I2
sI6
I1
sI7
I2
sI8
I1
sI9
I3
sI10
I4
sI11
I3
sI12
I2
ssVMB15_thorp
p76
(dp77
I0
I5
sI1
I1
sI2
I1
sI3
I2
sI4
I2
sI5
I4
sI6
I2
ssVMB28_show
p78
(dp79
I0
I2165
sI1
I2091
sI2
I2046
sI3
I1666
ssVMB33_whisper
p80
(dp81
I0
I63
sI1
I68
sI2
I82
sI3
I65
sI4
I51
ssVMB45_polit
p82
(dp83
I0
I228
sI1
I201
sI2
I189
sI3
I232
sI4
I253
sI5
I256
sI6
I420
sI7
I237
sI8
I201
sI9
I63
ssVMB43_lawsuit
p84
(dp85
I0
I77
sI1
I35
sI2
I71
sI3
I102
sI4
I42
sI5
I20
sI6
I4
ssVMB47_organ
p86
(dp87
I0
I215
sI1
I171
sI2
I182
sI3
I237
sI4
I268
sI5
I266
sI6
I286
sI7
I227
sI8
I215
sI9
I207
sI10
I221
sI11
I225
sI12
I213
sI13
I227
sI14
I211
sI15
I182
sI16
I1
ssVMB2_soccer
p88
(dp89
I0
I102
sI1
I168
sI2
I174
sI3
I130
sI4
I119
sI5
I140
sI6
I140
sI7
I135
sI8
I99
sI9
I113
sI10
I174
sI11
I93
sI12
I111
sI13
I146
sI14
I146
sI15
I118
sI16
I81
ssVMB10_attack
p90
(dp91
I0
I256
sI1
I359
sI2
I278
sI3
I336
sI4
I361
sI5
I327
sI6
I192
ssVMB35_shriver
p92
(dp93
I0
I7
sI1
I6
ssVMB49_law
p94
(dp95
I0
I468
sI1
I382
sI2
I254
sI3
I259
sI4
I335
sI5
I376
sI6
I383
sI7
I423
sI8
I360
sI9
I270
ssVMB5_secur
p96
(dp97
I0
I337
sI1
I317
sI2
I361
sI3
I352
sI4
I261
sI5
I262
sI6
I338
sI7
I377
sI8
I380
sI9
I378
sI10
I384
sI11
I256
sI12
I129
ssVMB43_kucinich
p98
(dp99
I0
I11
sI1
I9
sI2
I36
sI3
I2
ssVMB15_return
p100
(dp101
I0
I311
sI1
I385
sI2
I427
sI3
I401
sI4
I405
sI5
I434
sI6
I342
sI7
I125
ssVMB4_drug
p102
(dp103
I0
I346
sI1
I297
sI2
I256
sI3
I230
sI4
I300
sI5
I356
sI6
I360
sI7
I306
sI8
I293
sI9
I295
sI10
I165
ssVMB11_kubica
p104
(dp105
I0
I6
sI2
I19
sI3
I5
sI4
I1
sI5
I4
sI7
I1
sI9
I1
sI10
I2
sI13
I2
ssVMB3_haiti
p106
(dp107
I0
I42
sI1
I42
sI2
I30
sI3
I33
sI4
I38
sI5
I66
sI6
I49
sI7
I54
sI8
I60
sI9
I53
sI10
I47
sI11
I38
sI12
I52
sI13
I42
sI14
I49
sI15
I47
sI16
I35
ssVMB21_resid
p108
(dp109
I0
I131
sI1
I137
sI2
I123
sI3
I132
sI4
I137
sI5
I81
sI6
I13
ssVMB25_screen
p110
(dp111
I0
I309
sI1
I319
sI2
I339
sI3
I366
sI4
I260
sI5
I254
sI6
I325
sI7
I307
sI8
I331
sI9
I324
sI10
I324
sI11
I203
ssVMB36_moscow
p112
(dp113
I0
I295
sI1
I15
ssVMB23_train
p114
(dp115
I0
I551
sI1
I462
sI2
I340
sI3
I367
sI4
I517
sI5
I643
sI6
I676
sI7
I539
sI8
I459
sI9
I423
sI10
I544
sI11
I670
sI12
I573
sI13
I651
sI14
I628
sI15
I558
sI16
I335
ssVMB39_curfew
p116
(dp117
I0
I68
sI1
I6
sI2
I6
sI3
I6
sI4
I10
sI5
I3
ssVMB1_world
p118
(dp119
I0
I75
sI1
I79
sI2
I71
sI3
I106
sI4
I194
sI5
I146
sI6
I165
sI7
I198
sI8
I186
sI9
I242
sI10
I342
sI11
I293
sI12
I292
sI13
I428
sI14
I411
sI15
I410
sI16
I167
ssVMB9_recal
p120
(dp121
I0
I68
sI1
I66
sI2
I61
sI3
I37
sI4
I63
sI5
I74
sI6
I50
sI7
I65
sI8
I61
sI9
I53
sI10
I62
sI11
I53
sI12
I76
sI13
I178
sI14
I74
sI15
I58
sI16
I45
ssVMB14_releas
p122
(dp123
I0
I564
sI1
I550
sI2
I342
sI3
I349
sI4
I542
sI5
I569
sI6
I525
sI7
I599
sI8
I534
sI9
I429
sI10
I127
ssVMB13_oprah
p124
(dp125
I0
I133
sI1
I41
ssVMB49_carbon
p126
(dp127
I0
I59
sI1
I37
sI2
I30
sI3
I23
sI4
I38
sI5
I31
sI6
I35
sI7
I43
sI8
I34
sI9
I32
ssVMB13_half
p128
(dp129
I0
I1130
sI1
I456
ssVMB29_warm
p130
(dp131
I0
I256
sI1
I234
sI2
I252
sI3
I280
sI4
I391
sI5
I550
sI6
I493
sI7
I304
sI8
I215
sI9
I255
sI10
I271
sI11
I280
sI12
I252
sI13
I279
sI14
I338
sI15
I287
sI16
I15
ssVMB20_fill
p132
(dp133
I0
I115
sI1
I155
sI2
I196
sI3
I202
sI4
I168
sI5
I153
sI6
I150
sI7
I122
sI8
I173
sI9
I171
sI10
I199
sI11
I260
sI12
I206
sI13
I169
sI14
I35
ssVMB44_replac
p134
(dp135
I0
I260
sI1
I226
sI2
I233
sI3
I200
sI4
I190
sI5
I78
ssVMB14_rite
p136
(dp137
I0
I389
sI1
I324
sI2
I333
sI3
I329
sI4
I350
sI5
I395
sI6
I360
sI7
I367
sI8
I378
sI9
I327
sI10
I157
ssVMB13_winfrey
p138
(dp139
I0
I27
sI1
I13
ssVMB46_bottega
p140
(dp141
I0
I4
sI1
I1
sI2
I1
sI3
I4
sI4
I3
sI5
I3
sI6
I3
sI7
I1
sI8
I3
sI9
I2
sI10
I3
sI11
I1
sI12
I2
sI13
I4
sI14
I1
sI15
I2
sI16
I3
ssVMB1_staff
p142
(dp143
I0
I161
sI1
I122
sI2
I103
sI3
I144
sI4
I167
sI5
I170
sI6
I154
sI7
I161
sI8
I125
sI9
I114
sI10
I158
sI11
I158
sI12
I156
sI13
I189
sI14
I164
sI15
I112
sI16
I40
ssVMB31_athlet
p144
(dp145
I0
I99
sI1
I105
sI2
I100
sI3
I70
sI4
I104
sI5
I80
sI6
I87
sI7
I89
sI8
I98
sI9
I104
sI10
I144
sI11
I89
sI12
I23
ssVMB44_white
p146
(dp147
I0
I1032
sI1
I1064
sI2
I1127
sI3
I1038
sI4
I1096
sI5
I438
ssVMB47_farm
p148
(dp149
I0
I91
sI1
I64
sI2
I112
sI3
I112
sI4
I123
sI5
I130
sI6
I133
sI7
I130
sI8
I85
sI9
I89
sI10
I94
sI11
I123
sI12
I131
sI13
I118
sI14
I116
sI15
I80
sI16
I1
ssVMB18_william
p150
(dp151
I0
I274
sI1
I226
sI2
I234
sI3
I77
ssVMB33_cesar
p152
(dp153
I0
I37
sI1
I41
sI2
I51
sI3
I32
sI4
I24
ssVMB41_birth
p154
(dp155
I0
I88
sI1
I76
sI2
I97
sI3
I104
sI4
I115
sI5
I124
sI6
I133
sI7
I119
sI8
I51
ssVMB19_cut
p156
(dp157
I0
I532
sI1
I404
sI2
I431
sI3
I401
sI4
I458
sI5
I468
sI6
I494
sI7
I438
sI8
I375
sI9
I490
sI10
I606
sI11
I525
sI12
I657
sI13
I484
sI14
I501
sI15
I420
ssVMB49_monoxid
p158
(dp159
I0
I4
sI1
I4
sI2
I1
sI3
I3
sI4
I4
sI5
I3
sI6
I3
sI7
I8
sI8
I3
sI9
I2
ssVMB35_sargent
p160
(dp161
I0
I7
sI1
I2
ssVMB27_consumpt
p162
(dp163
I0
I16
sI1
I12
sI2
I18
sI3
I17
sI4
I14
sI5
I6
sI6
I12
sI7
I14
sI8
I10
sI9
I15
sI10
I13
sI11
I7
sI12
I4
ssVMB42_iran
p164
(dp165
I0
I86
sI1
I100
sI2
I62
sI3
I87
sI4
I89
sI5
I68
sI6
I96
sI7
I83
sI8
I71
sI9
I133
sI10
I69
sI11
I70
sI12
I49
sI13
I60
sI14
I67
sI15
I58
ssVMB33_techniqu
p166
(dp167
I0
I68
sI1
I76
sI2
I73
sI3
I55
sI4
I43
ssVMB2_fifa
p168
(dp169
I0
I92
sI1
I92
sI2
I64
sI3
I114
sI4
I114
sI5
I111
sI6
I88
sI7
I83
sI8
I75
sI9
I89
sI10
I93
sI11
I92
sI12
I73
sI13
I88
sI14
I122
sI15
I86
sI16
I68
ssVMB16_releas
p170
(dp171
I0
I473
sI1
I205
ssVMB42_holland
p172
(dp173
I0
I59
sI1
I40
sI2
I44
sI3
I52
sI4
I54
sI5
I50
sI6
I55
sI7
I46
sI8
I49
sI9
I39
sI10
I55
sI11
I42
sI12
I44
sI13
I53
sI14
I53
sI15
I35
ssVMB33_millan
p174
(dp175
I0
I3
sI1
I1
sI2
I1
sI3
I1
sI4
I1
ssVMB19_budget
p176
(dp177
I0
I182
sI1
I101
sI2
I100
sI3
I162
sI4
I151
sI5
I150
sI6
I202
sI7
I120
sI8
I92
sI9
I99
sI10
I129
sI11
I173
sI12
I234
sI13
I161
sI14
I157
sI15
I96
ssVMB24_bowl
p178
(dp179
I0
I280
sI1
I2346
sI2
I755
sI3
I364
sI4
I218
sI5
I232
sI6
I185
sI7
I151
sI8
I168
sI9
I76
sI10
I113
sI11
I102
sI12
I79
sI13
I135
sI14
I128
sI15
I330
sI16
I36
ssVMB17_stripe
p180
(dp181
I0
I180
sI1
I32
sI2
I31
sI3
I23
sI4
I31
sI5
I31
sI6
I28
sI7
I29
sI8
I41
sI9
I40
sI10
I20
ssVMB34_rachel
p182
(dp183
I0
I107
sI1
I105
sI2
I88
sI3
I80
sI4
I77
sI5
I78
sI6
I88
sI7
I89
sI8
I75
sI9
I99
sI10
I92
sI11
I72
sI12
I70
ssVMB32_job
p184
(dp185
I0
I579
sI1
I641
sI2
I572
sI3
I610
sI4
I433
sI5
I505
sI6
I611
sI7
I635
sI8
I859
sI9
I857
sI10
I811
sI11
I548
sI12
I55
ssVMB24_seat
p186
(dp187
I0
I289
sI1
I321
sI2
I182
sI3
I226
sI4
I222
sI5
I255
sI6
I218
sI7
I230
sI8
I225
sI9
I198
sI10
I214
sI11
I225
sI12
I228
sI13
I301
sI14
I228
sI15
I232
sI16
I130
ssVMB44_hous
p188
(dp189
I0
I497
sI1
I511
sI2
I507
sI3
I541
sI4
I534
sI5
I283
ssVMB42_envoy
p190
(dp191
I0
I14
sI1
I16
sI2
I11
sI3
I4
sI4
I8
sI5
I7
sI6
I13
sI7
I5
sI8
I5
sI10
I2
sI11
I4
sI12
I5
sI13
I4
sI14
I2
sI15
I1
ssVMB40_beck
p192
(dp193
I0
I36
sI1
I30
sI2
I35
sI3
I62
sI4
I47
sI5
I38
sI6
I54
sI7
I42
sI8
I34
ssVMB15_olymp
p194
(dp195
I0
I40
sI1
I43
sI2
I46
sI3
I52
sI4
I46
sI5
I55
sI6
I45
sI7
I16
ssVMB31_special
p196
(dp197
I0
I506
sI1
I756
sI2
I576
sI3
I512
sI4
I551
sI5
I575
sI6
I736
sI7
I527
sI8
I437
sI9
I637
sI10
I658
sI11
I548
sI12
I197
ssVMB10_egyptian
p198
(dp199
I0
I599
sI1
I453
sI2
I130
sI3
I146
sI4
I57
sI5
I21
sI6
I8
ssVMB28_auto
p200
(dp201
I0
I403
sI1
I433
sI2
I403
sI3
I305
ssVMB3_return
p202
(dp203
I0
I412
sI1
I389
sI2
I294
sI3
I327
sI4
I391
sI5
I424
sI6
I445
sI7
I433
sI8
I401
sI9
I348
sI10
I337
sI11
I412
sI12
I425
sI13
I405
sI14
I415
sI15
I419
sI16
I250
ssVMB12_nomin
p204
(dp205
I0
I559
sI1
I350
sI2
I303
sI3
I434
sI4
I475
sI5
I616
sI6
I1106
sI7
I478
sI8
I369
ssVMB1_bbc
p206
(dp207
I0
I202
sI1
I245
sI2
I151
sI3
I182
sI4
I247
sI5
I259
sI6
I275
sI7
I225
sI8
I175
sI9
I150
sI10
I176
sI11
I203
sI12
I209
sI13
I228
sI14
I239
sI15
I164
sI16
I50
ssVMB41_obama
p208
(dp209
I0
I273
sI1
I302
sI2
I529
sI3
I500
sI4
I657
sI5
I2650
sI6
I435
sI7
I347
sI8
I168
ssVMB47_requir
p210
(dp211
I0
I229
sI1
I144
sI2
I137
sI3
I171
sI4
I196
sI5
I192
sI6
I232
sI7
I178
sI8
I121
sI9
I138
sI10
I183
sI11
I195
sI12
I197
sI13
I186
sI14
I196
sI15
I114
sI16
I2
ssVMB40_attack
p212
(dp213
I0
I273
sI1
I246
sI2
I251
sI3
I358
sI4
I279
sI5
I339
sI6
I351
sI7
I335
sI8
I201
ssVMB17_white
p214
(dp215
I0
I1016
sI1
I768
sI2
I918
sI3
I740
sI4
I811
sI5
I964
sI6
I1092
sI7
I1113
sI8
I1031
sI9
I1153
sI10
I656
ssVMB29_weather
p216
(dp217
I0
I53
sI1
I46
sI2
I64
sI3
I83
sI4
I94
sI5
I130
sI6
I159
sI7
I72
sI8
I53
sI9
I53
sI10
I76
sI11
I64
sI12
I74
sI13
I72
sI14
I85
sI15
I60
sI16
I3
ssVMB7_arrest
p218
(dp219
I0
I118
sI1
I142
sI2
I115
sI3
I141
sI4
I165
sI5
I227
sI6
I171
sI7
I138
sI8
I148
sI9
I106
sI10
I133
sI11
I198
sI12
I173
sI13
I177
sI14
I141
sI15
I138
sI16
I101
ssVMB43_pit
p220
(dp221
I0
I127
sI1
I122
sI2
I134
sI3
I104
sI4
I104
sI5
I154
sI6
I51
ssVMB36_airport
p222
(dp223
I0
I545
sI1
I242
ssVMB12_nobel
p224
(dp225
I0
I18
sI1
I15
sI2
I16
sI3
I30
sI4
I23
sI5
I14
sI6
I17
sI7
I19
sI8
I8
ssVMB26_unemploy
p226
(dp227
I0
I56
sI1
I32
sI2
I25
sI3
I32
sI4
I38
sI5
I17
sI6
I23
sI7
I38
sI8
I29
sI9
I59
sI10
I37
sI11
I28
sI12
I11
ssVMB27_energi
p228
(dp229
I0
I408
sI1
I413
sI2
I417
sI3
I403
sI4
I281
sI5
I291
sI6
I371
sI7
I366
sI8
I393
sI9
I519
sI10
I315
sI11
I269
sI12
I54
ssVMB15_2012
p230
(dp231
I0
I160
sI1
I243
sI2
I287
sI3
I251
sI4
I286
sI5
I288
sI6
I252
sI7
I83
ssVMB23_amtrak
p232
(dp233
I0
I12
sI1
I10
sI2
I4
sI3
I3
sI4
I4
sI5
I10
sI6
I7
sI7
I7
sI8
I4
sI9
I6
sI10
I3
sI11
I12
sI12
I10
sI13
I11
sI14
I2
sI15
I5
ssVMB5_comput
p234
(dp235
I0
I332
sI1
I425
sI2
I425
sI3
I378
sI4
I329
sI5
I290
sI6
I365
sI7
I411
sI8
I378
sI9
I439
sI10
I478
sI11
I339
sI12
I199
ssVMB29_global
p236
(dp237
I0
I242
sI1
I202
sI2
I212
sI3
I333
sI4
I310
sI5
I291
sI6
I284
sI7
I289
sI8
I189
sI9
I198
sI10
I290
sI11
I281
sI12
I321
sI13
I333
sI14
I285
sI15
I199
sI16
I9
ssVMB21_court
p238
(dp239
I0
I252
sI1
I288
sI2
I257
sI3
I321
sI4
I359
sI5
I149
sI6
I29
ssVMB17_breakup
p240
(dp241
I0
I12
sI1
I11
sI2
I11
sI3
I9
sI4
I7
sI5
I20
sI6
I19
sI7
I10
sI8
I17
sI9
I12
sI10
I6
ssVMB41_certif
p242
(dp243
I0
I52
sI1
I34
sI2
I34
sI3
I61
sI4
I78
sI5
I62
sI6
I78
sI7
I56
sI8
I24
ssVMB33_dog
p244
(dp245
I0
I869
sI1
I819
sI2
I800
sI3
I803
sI4
I593
ssVMB30_keith
p246
(dp247
I0
I157
sI1
I67
sI2
I49
sI3
I56
sI4
I53
sI5
I56
sI6
I61
sI7
I55
sI8
I70
sI9
I42
sI10
I57
sI11
I84
sI12
I66
sI13
I95
sI14
I109
sI15
I98
sI16
I87
ssVMB9_toyota
p248
(dp249
I0
I138
sI1
I52
sI2
I44
sI3
I52
sI4
I64
sI5
I49
sI6
I56
sI7
I54
sI8
I43
sI9
I30
sI10
I38
sI11
I65
sI12
I73
sI13
I158
sI14
I60
sI15
I82
sI16
I35
ssVMB21_rule
p250
(dp251
I0
I399
sI1
I457
sI2
I382
sI3
I488
sI4
I439
sI5
I354
sI6
I47
ssVMB25_airport
p252
(dp253
I0
I339
sI1
I300
sI2
I300
sI3
I317
sI4
I326
sI5
I335
sI6
I340
sI7
I289
sI8
I314
sI9
I423
sI10
I498
sI11
I203
ssVMB1_cut
p254
(dp255
I0
I269
sI1
I479
sI2
I466
sI3
I387
sI4
I408
sI5
I449
sI6
I486
sI7
I480
sI8
I418
sI9
I431
sI10
I555
sI11
I552
sI12
I547
sI13
I622
sI14
I504
sI15
I443
sI16
I209
ssVMB43_oliv
p256
(dp257
I0
I115
sI1
I105
sI2
I128
sI3
I185
sI4
I99
sI5
I88
sI6
I31
ssVMB6_nsa
p258
(dp259
I0
I7
sI1
I3
sI2
I6
sI3
I6
sI4
I6
sI5
I5
sI6
I7
sI7
I3
sI8
I4
sI9
I6
sI10
I9
sI11
I4
sI12
I8
sI13
I6
sI14
I14
sI15
I12
sI16
I2
ssVMB8_politician
p260
(dp261
I0
I25
sI1
I31
sI2
I35
sI3
I35
sI4
I36
sI5
I41
sI6
I20
sI7
I24
sI8
I31
sI9
I37
sI10
I38
sI11
I43
sI12
I84
sI13
I47
sI14
I42
sI15
I17
ssVMB42_recal
p262
(dp263
I0
I66
sI1
I59
sI2
I38
sI3
I65
sI4
I73
sI5
I49
sI6
I69
sI7
I60
sI8
I50
sI9
I63
sI10
I50
sI11
I86
sI12
I169
sI13
I75
sI14
I60
sI15
I40
ssVMB38_jordan
p264
(dp265
I0
I153
sI1
I185
sI2
I137
sI3
I181
sI4
I178
sI5
I168
sI6
I175
sI7
I157
sI8
I131
sI9
I81
ssVMB19_cuomo
p266
(dp267
I0
I14
sI1
I3
sI2
I4
sI3
I5
sI4
I7
sI5
I8
sI6
I22
sI7
I8
sI8
I5
sI9
I8
sI10
I5
sI11
I3
sI12
I3
sI13
I7
sI14
I4
sI15
I1
ssVMB48_egyptian
p268
(dp269
I0
I409
sI1
I571
sI2
I651
sI3
I181
sI4
I141
sI5
I119
sI6
I19
sI7
I19
sI8
I2
ssVMB16_unknown
p270
(dp271
I0
I83
sI1
I53
ssVMB35_tribut
p272
(dp273
I0
I53
sI1
I15
ssVMB30_job
p274
(dp275
I0
I532
sI1
I576
sI2
I411
sI3
I445
sI4
I645
sI5
I572
sI6
I651
sI7
I580
sI8
I583
sI9
I429
sI10
I515
sI11
I601
sI12
I662
sI13
I880
sI14
I848
sI15
I796
sI16
I511
ssVMB1_servic
p276
(dp277
I0
I168
sI1
I150
sI2
I133
sI3
I135
sI4
I177
sI5
I220
sI6
I189
sI7
I211
sI8
I179
sI9
I156
sI10
I256
sI11
I236
sI12
I196
sI13
I276
sI14
I227
sI15
I193
sI16
I83
ssVMB20_lawsuit
p278
(dp279
I0
I26
sI1
I51
sI2
I55
sI3
I39
sI4
I45
sI5
I51
sI6
I20
sI7
I25
sI8
I77
sI9
I36
sI10
I70
sI11
I103
sI12
I42
sI13
I20
sI14
I3
ssVMB36_bomb
p280
(dp281
I0
I271
sI1
I185
ssVMB7_diplomat
p282
(dp283
I0
I17
sI1
I18
sI2
I6
sI3
I24
sI4
I30
sI5
I31
sI6
I29
sI7
I41
sI8
I15
sI9
I21
sI10
I27
sI11
I16
sI12
I19
sI13
I10
sI14
I14
sI15
I15
sI16
I22
ssVMB4_war
p284
(dp285
I0
I401
sI1
I293
sI2
I308
sI3
I290
sI4
I380
sI5
I343
sI6
I321
sI7
I444
sI8
I428
sI9
I348
sI10
I217
ssVMB18_fax
p286
(dp287
I0
I21
sI1
I19
sI2
I14
sI3
I5
ssVMB31_olymp
p288
(dp289
I0
I46
sI1
I48
sI2
I68
sI3
I43
sI4
I43
sI5
I39
sI6
I40
sI7
I54
sI8
I43
sI9
I54
sI10
I52
sI11
I47
sI12
I8
ssVMB18_save
p290
(dp291
I0
I887
sI1
I932
sI2
I773
sI3
I269
ssVMB34_msnbc
p292
(dp293
I0
I22
sI1
I31
sI2
I26
sI3
I33
sI4
I39
sI5
I17
sI6
I23
sI7
I38
sI8
I37
sI9
I56
sI10
I65
sI11
I77
sI12
I45
ssVMB40_piven
p294
(dp295
I0
I6
sI1
I8
sI2
I8
sI3
I5
sI4
I2
sI5
I7
sI6
I5
sI7
I6
sI8
I7
ssVMB12_assang
p296
(dp297
I0
I118
sI1
I26
sI2
I22
sI3
I25
sI4
I37
sI5
I28
sI6
I38
sI7
I27
sI8
I10
ssVMB28_detroit
p298
(dp299
I0
I92
sI1
I97
sI2
I138
sI3
I82
ssVMB23_servic
p300
(dp301
I0
I132
sI1
I155
sI2
I144
sI3
I122
sI4
I151
sI5
I212
sI6
I212
sI7
I207
sI8
I185
sI9
I153
sI10
I213
sI11
I266
sI12
I194
sI13
I254
sI14
I243
sI15
I222
sI16
I140
ssVMB45_campaign
p302
(dp303
I0
I180
sI1
I114
sI2
I75
sI3
I135
sI4
I185
sI5
I167
sI6
I175
sI7
I167
sI8
I112
sI9
I45
ssVMB20_taco
p304
(dp305
I0
I180
sI1
I217
sI2
I212
sI3
I191
sI4
I223
sI5
I213
sI6
I208
sI7
I223
sI8
I287
sI9
I238
sI10
I263
sI11
I382
sI12
I194
sI13
I168
sI14
I80
ss.